
There are no discarded input sections

Memory Configuration

Name             Origin             Length             Attributes
FLASH            0x08000000         0x00040000         xr
SRAM             0x20000000         0x00010000         xrw
*default*        0x00000000         0xffffffff

Linker script and memory map

LOAD build/main.o
LOAD build/vector_table_f401.o
LOAD build/af_table.o
LOAD build/clock.o
LOAD build/delay.o
LOAD build/gpio.o
LOAD /usr/lib/gcc/arm-none-eabi/13.2.1/../../../arm-none-eabi/lib/libc.a
LOAD /usr/lib/gcc/arm-none-eabi/13.2.1/libgcc.a
LOAD /usr/lib/gcc/arm-none-eabi/13.2.1/../../../arm-none-eabi/lib/libnosys.a

.text           0x08000000      0xc24
 *(.isr_vector)
 .isr_vector    0x08000000      0x190 build/vector_table_f401.o
                0x08000000                vectors
 *(.text)
 .text          0x08000190      0x144 build/main.o
                0x0800027a                main
 .text          0x080002d4       0x88 build/vector_table_f401.o
                0x080002d4                FLASH_Handler
                0x080002d4                SVCall_Handler
                0x080002d4                DMA2_Stream7_Handler
                0x080002d4                HardFault_Handler
                0x080002d4                DMA2_Stream3_Handler
                0x080002d4                PendSV_Handler
                0x080002d4                NMI_Handler
                0x080002d4                EXTI15_10_Handler
                0x080002d4                ADC_Handler
                0x080002d4                EXTI17_RTC_Alarm_Handler
                0x080002d4                I2C1_EV_Handler
                0x080002d4                I2C3_ER_Handler
                0x080002d4                WWDG_Handler
                0x080002d4                EXTI4_Handler
                0x080002d4                I2C3_EV_Handler
                0x080002d4                DMA1_Stream1_Handler
                0x080002d4                DMA2_Stream4_Handler
                0x080002d4                DMA1_Stream7_Handler
                0x080002d4                OTG_FS_Handler
                0x080002d4                TIM1_BRK_TIM9_Handler
                0x080002d4                I2C1_ER_Handler
                0x080002d4                EXTI6_PVD_Handler
                0x080002d4                DMA1_Stream3_Handler
                0x080002d4                UsageFault_Handler
                0x080002d4                TIM1_UP_TIM10_Handler
                0x080002d4                TIM1_CC_Handler
                0x080002d4                I2C2_ER_Handler
                0x080002d4                USART6_Handler
                0x080002d4                DMA1_Stream0_Handler
                0x080002d4                EXTI1_Handler
                0x080002d4                EXTI3_Handler
                0x080002d4                EXTI22_RTC_WKUP_Handler
                0x080002d4                EXTI2_Handler
                0x080002d4                EXTI9_5_Handler
                0x080002d4                TIM2_Handler
                0x080002d4                USART1_Handler
                0x080002d4                EXTI18_OTG_FS_WKUP_Handler
                0x080002d4                TIM3_Handler
                0x080002d4                DMA2_Stream6_Handler
                0x080002d4                Default_Handler
                0x080002d4                TIM1_TRG_COM_TIM11_Handler
                0x080002d4                EXTI21_TAMP_STAMP_Handler
                0x080002d4                TIM4_Handler
                0x080002d4                SPI2_Handler
                0x080002d4                DMA2_Stream1_Handler
                0x080002d4                DMA1_Stream2_Handler
                0x080002d4                MemManage_Handler
                0x080002d4                EXTI0_Handler
                0x080002d4                DMA2_Stream5_Handler
                0x080002d4                DMA1_Stream6_Handler
                0x080002d4                SDIO_Handler
                0x080002d4                USART2_Handler
                0x080002d4                SPI1_Handler
                0x080002d4                I2C2_EV_Handler
                0x080002d4                DMA2_Stream2_Handler
                0x080002d4                SPI3_Handler
                0x080002d4                DMA2_Stream0_Handler
                0x080002d4                RCC_Handler
                0x080002d4                DMA1_Stream5_Handler
                0x080002d4                TIM5_Handler
                0x080002d4                FPU_Handler
                0x080002d4                BusFault_Handler
                0x080002d4                DMA1_Stream4_Handler
                0x080002d4                DebugMonitor_Handler
                0x080002d4                SPI4_Handler
                0x080002dc                _init
                0x080002e8                Reset_Handler
 .text          0x0800035c      0x104 build/af_table.o
                0x0800035c                GetValueFromGPIO
                0x080003c0                FillMatrix
                0x0800040c                IsAFValidForPin
 .text          0x08000460      0x258 build/clock.o
                0x08000544                RCC_PLL_CONFIG
 .text          0x080006b8       0x4c build/delay.o
                0x080006b8                SysTick_Handler
                0x080006d4                delay
 .text          0x08000704      0x310 build/gpio.o
                0x080008bc                GPIO_INIT
 *(.rodata)
 .rodata        0x08000a14        0x8 build/vector_table_f401.o
 .rodata        0x08000a1c      0x208 build/af_table.o
                0x08000a1c                SYS_AF
                0x08000a24                TIM3_CH1
                0x08000a3c                TIM3_CH2
                0x08000a54                TIM5_CH1
                0x08000a5c                TIM5_CH2
                0x08000a64                TIM5_CH3
                0x08000a6c                TIM5_CH4
                0x08000a74                TIM4_CH1
                0x08000a84                TIM4_CH2
                0x08000a94                TIM4_CH3
                0x08000aa4                TIM4_CH4
                0x08000ab4                TIM2_CH1_ETR
                0x08000acc                TIM2_CH2
                0x08000adc                TIM2_CH3
                0x08000aec                TIM2_CH4
                0x08000afc                TIM1_BKIN
                0x08000b14                TIM1_CH1N
                0x08000b2c                TIM1_CH1
                0x08000b3c                TIM1_CH2
                0x08000b4c                TIM1_CH3
                0x08000b5c                TIM1_CH4
                0x08000b6c                TIM1_ETR
                0x08000b7c                TIM1_CH2N
                0x08000b8c                TIM3_CH3
                0x08000b9c                TIM3_CH4
                0x08000bac                TIM3_ETR
                0x08000bb4                TIM4_ETR
                0x08000bbc                TIM9_CH1
                0x08000bcc                TIM9_CH2
                0x08000bdc                TIM10_CH1
                0x08000be4                TIM11_CH1
                0x08000bec                I2C3_SCL
                0x08000bf4                I2C3_SMBA
                0x08000bfc                I2C1_SMBA
                0x08000c04                I2C1_SCL
                0x08000c14                I2C1_SDA
                0x08000c24                        . = ALIGN (0x4)
                0x08000c24                        end_of_text = .
                0x08000c24                        flash_data = LOADADDR (.data)

.glue_7         0x08000c24        0x0
 .glue_7        0x08000c24        0x0 linker stubs

.glue_7t        0x08000c24        0x0
 .glue_7t       0x08000c24        0x0 linker stubs

.vfp11_veneer   0x08000c24        0x0
 .vfp11_veneer  0x08000c24        0x0 linker stubs

.v4_bx          0x08000c24        0x0
 .v4_bx         0x08000c24        0x0 linker stubs

.iplt           0x08000c24        0x0
 .iplt          0x08000c24        0x0 build/main.o

.rel.dyn        0x08000c24        0x0
 .rel.iplt      0x08000c24        0x0 build/main.o

.data           0x20000000        0xc load address 0x08000c24
                0x20000000                        _s_data = .
 *(.data)
 .data          0x20000000        0x0 build/main.o
 .data          0x20000000        0x0 build/vector_table_f401.o
 .data          0x20000000        0xa build/af_table.o
                0x20000000                TIM3_CH1_SIZE
                0x20000001                TIM3_CH2_SIZE
                0x20000002                TIM5_CH1_SIZE
                0x20000003                TIM5_CH2_SIZE
                0x20000004                TIM5_CH3_SIZE
                0x20000005                TIM5_CH4_SIZE
                0x20000006                TIM2_CH1_ETR_SIZE
                0x20000007                TIM2_CH2_SIZE
                0x20000008                TIM2_CH3_SIZE
                0x20000009                TIM2_CH4_SIZE
 .data          0x2000000a        0x0 build/clock.o
 .data          0x2000000a        0x0 build/delay.o
 .data          0x2000000a        0x0 build/gpio.o
                0x2000000c                        . = ALIGN (0x4)
 *fill*         0x2000000a        0x2 
                0x2000000c                        _e_data = .

.igot.plt       0x2000000c        0x0 load address 0x08000c30
 .igot.plt      0x2000000c        0x0 build/main.o

.bss            0x2000000c      0x148 load address 0x08000c30
                0x2000000c                        _s_bss = .
 *(.bss)
 .bss           0x2000000c        0x0 build/main.o
 .bss           0x2000000c        0x0 build/vector_table_f401.o
 .bss           0x2000000c      0x140 build/af_table.o
                0x2000000c                PinAvailable
 .bss           0x2000014c        0x0 build/clock.o
 .bss           0x2000014c        0x4 build/delay.o
                0x2000014c                stick
 .bss           0x20000150        0x4 build/gpio.o
                0x20000150                lock_value
                0x20000154                        . = ALIGN (0x4)
                0x20000154                        _e_bss = .
OUTPUT(build/final.elf elf32-littlearm)
LOAD linker stubs

.comment        0x00000000       0x26
 .comment       0x00000000       0x26 build/main.o
                                 0x27 (size before relaxing)
 .comment       0x00000026       0x27 build/vector_table_f401.o
 .comment       0x00000026       0x27 build/af_table.o
 .comment       0x00000026       0x27 build/clock.o
 .comment       0x00000026       0x27 build/delay.o
 .comment       0x00000026       0x27 build/gpio.o

.ARM.attributes
                0x00000000       0x2e
 .ARM.attributes
                0x00000000       0x2e build/main.o
 .ARM.attributes
                0x0000002e       0x2e build/vector_table_f401.o
 .ARM.attributes
                0x0000005c       0x2e build/af_table.o
 .ARM.attributes
                0x0000008a       0x2e build/clock.o
 .ARM.attributes
                0x000000b8       0x2e build/delay.o
 .ARM.attributes
                0x000000e6       0x2e build/gpio.o
